target datalayout = "e-m:e-p270:32:32-p271:32:32-p272:64:64-i64:64-i128:128-f80:128-n8:16:32:64-S128"
target triple = "x86_64-pc-linux-gnu"

%"class.icu_77::EraRules" = type { %"class.icu_77::LocalMemory", i32, i32 }
%"class.icu_77::LocalMemory" = type { %"class.icu_77::LocalPointerBase" }
%"class.icu_77::LocalPointerBase" = type { ptr }

; Function Attrs: mustprogress nounwind uwtable
define internal void @_ZN6icu_77L10decodeDateEiRA3_i(i32 noundef %0, ptr noundef nonnull align 4 dereferenceable(12) %1) #1 {
  %3 = alloca i32, align 4
  %4 = alloca ptr, align 8
  store i32 %0, ptr %3, align 4, !tbaa !10
  store ptr %1, ptr %4, align 8, !tbaa !17
  %5 = load i32, ptr %3, align 4, !tbaa !10
  %6 = icmp eq i32 %5, -2147483391
  br i1 %6, label %7, label %14

7:                                                ; preds = %2
  %8 = load ptr, ptr %4, align 8, !tbaa !17
  %9 = getelementptr inbounds [3 x i32], ptr %8, i64 0, i64 0
  store i32 -1, ptr %9, align 4, !tbaa !10
  %10 = load ptr, ptr %4, align 8, !tbaa !17
  %11 = getelementptr inbounds [3 x i32], ptr %10, i64 0, i64 1
  store i32 1, ptr %11, align 4, !tbaa !10
  %12 = load ptr, ptr %4, align 8, !tbaa !17
  %13 = getelementptr inbounds [3 x i32], ptr %12, i64 0, i64 2
  store i32 1, ptr %13, align 4, !tbaa !10
  br label %29

14:                                               ; preds = %2
  %15 = load i32, ptr %3, align 4, !tbaa !10
  %16 = and i32 %15, -65536
  %17 = ashr i32 %16, 16
  %18 = load ptr, ptr %4, align 8, !tbaa !17
  %19 = getelementptr inbounds [3 x i32], ptr %18, i64 0, i64 0
  store i32 %17, ptr %19, align 4, !tbaa !10
  %20 = load i32, ptr %3, align 4, !tbaa !10
  %21 = and i32 %20, 65280
  %22 = ashr i32 %21, 8
  %23 = load ptr, ptr %4, align 8, !tbaa !17
  %24 = getelementptr inbounds [3 x i32], ptr %23, i64 0, i64 1
  store i32 %22, ptr %24, align 4, !tbaa !10
  %25 = load i32, ptr %3, align 4, !tbaa !10
  %26 = and i32 %25, 255
  %27 = load ptr, ptr %4, align 8, !tbaa !17
  %28 = getelementptr inbounds [3 x i32], ptr %27, i64 0, i64 2
  store i32 %26, ptr %28, align 4, !tbaa !10
  br label %29

29:                                               ; preds = %14, %7
  ret void
}

; Function Attrs: mustprogress nounwind uwtable
define linkonce_odr noundef nonnull align 4 dereferenceable(4) ptr @_ZNK6icu_7711LocalMemoryIiEixEl(ptr noundef nonnull align 8 dereferenceable(8) %0, i64 noundef %1) #1 comdat align 2 {
  %3 = alloca ptr, align 8
  %4 = alloca i64, align 8
  store ptr %0, ptr %3, align 8, !tbaa !8
  store i64 %1, ptr %4, align 8, !tbaa !48
  %5 = load ptr, ptr %3, align 8
  %6 = getelementptr inbounds nuw %"class.icu_77::LocalPointerBase", ptr %5, i32 0, i32 0
  %7 = load ptr, ptr %6, align 8, !tbaa !18
  %8 = load i64, ptr %4, align 8, !tbaa !48
  %9 = getelementptr inbounds i32, ptr %7, i64 %8
  ret ptr %9
}

; Function Attrs: inlinehint mustprogress nounwind uwtable
define internal noundef signext i8 @_ZL9U_FAILURE10UErrorCode(i32 noundef %0) #2 {
  %2 = alloca i32, align 4
  store i32 %0, ptr %2, align 4, !tbaa !19
  %3 = load i32, ptr %2, align 4, !tbaa !19
  %4 = icmp sgt i32 %3, 0
  %5 = zext i1 %4 to i8
  ret i8 %5
}

; Function Attrs: mustprogress uwtable
define noundef i32 @_ZNK6icu_778EraRules12getStartYearEiR10UErrorCode(ptr noundef nonnull align 8 dereferenceable(16) %0, i32 noundef %1, ptr noundef nonnull align 4 dereferenceable(4) %2) #0 align 2 {
  %4 = alloca i32, align 4
  %5 = alloca ptr, align 8
  %6 = alloca i32, align 4
  %7 = alloca ptr, align 8
  %8 = alloca i32, align 4
  %9 = alloca i32, align 4
  %10 = alloca [3 x i32], align 4
  store ptr %0, ptr %5, align 8, !tbaa !3
  store i32 %1, ptr %6, align 4, !tbaa !10
  store ptr %2, ptr %7, align 8, !tbaa !33
  %11 = load ptr, ptr %5, align 8
  call void @llvm.lifetime.start.p0(i64 4, ptr %8) #10
  store i32 2147483647, ptr %8, align 4, !tbaa !10
  %12 = load ptr, ptr %7, align 8, !tbaa !33
  %13 = load i32, ptr %12, align 4, !tbaa !19
  %14 = call noundef signext i8 @_ZL9U_FAILURE10UErrorCode(i32 noundef %13)
  %15 = icmp ne i8 %14, 0
  br i1 %15, label %16, label %18

16:                                               ; preds = %3
  %17 = load i32, ptr %8, align 4, !tbaa !10
  store i32 %17, ptr %4, align 4
  store i32 1, ptr %9, align 4
  br label %38

18:                                               ; preds = %3
  %19 = load i32, ptr %6, align 4, !tbaa !10
  %20 = icmp slt i32 %19, 0
  br i1 %20, label %26, label %21

21:                                               ; preds = %18
  %22 = load i32, ptr %6, align 4, !tbaa !10
  %23 = getelementptr inbounds nuw %"class.icu_77::EraRules", ptr %11, i32 0, i32 1
  %24 = load i32, ptr %23, align 8, !tbaa !12
  %25 = icmp sge i32 %22, %24
  br i1 %25, label %26, label %29

26:                                               ; preds = %21, %18
  %27 = load ptr, ptr %7, align 8, !tbaa !33
  store i32 1, ptr %27, align 4, !tbaa !19
  %28 = load i32, ptr %8, align 4, !tbaa !10
  store i32 %28, ptr %4, align 4
  store i32 1, ptr %9, align 4
  br label %38

29:                                               ; preds = %21
  call void @llvm.lifetime.start.p0(i64 12, ptr %10) #10
  %30 = getelementptr inbounds nuw %"class.icu_77::EraRules", ptr %11, i32 0, i32 0
  %31 = load i32, ptr %6, align 4, !tbaa !10
  %32 = sext i32 %31 to i64
  %33 = call noundef nonnull align 4 dereferenceable(4) ptr @_ZNK6icu_7711LocalMemoryIiEixEl(ptr noundef nonnull align 8 dereferenceable(8) %30, i64 noundef %32)
  %34 = load i32, ptr %33, align 4, !tbaa !10
  call void @_ZN6icu_77L10decodeDateEiRA3_i(i32 noundef %34, ptr noundef nonnull align 4 dereferenceable(12) %10)
  %35 = getelementptr inbounds [3 x i32], ptr %10, i64 0, i64 0
  %36 = load i32, ptr %35, align 4, !tbaa !10
  store i32 %36, ptr %8, align 4, !tbaa !10
  %37 = load i32, ptr %8, align 4, !tbaa !10
  store i32 %37, ptr %4, align 4
  store i32 1, ptr %9, align 4
  call void @llvm.lifetime.end.p0(i64 12, ptr %10) #10
  br label %38

38:                                               ; preds = %29, %26, %16
  call void @llvm.lifetime.end.p0(i64 4, ptr %8) #10
  %39 = load i32, ptr %4, align 4
  ret i32 %39
}