; Function Attrs: mustprogress nofree norecurse nosync nounwind willreturn memory(read, argmem: readwrite, inaccessiblemem: none) uwtable
define noundef range(i32 -32768, -2147483648) i32 @_ZNK6icu_778EraRules12getStartYearEiR10UErrorCode(ptr noundef nonnull readonly align 8 captures(none) dereferenceable(16) %0, i32 noundef %1, ptr noundef nonnull align 4 captures(none) dereferenceable(4) %2) local_unnamed_addr #9 align 2 {
  %4 = load i32, ptr %2, align 4, !tbaa !13
  %5 = icmp slt i32 %4, 1
  br i1 %5, label %6, label %18

6:                                                ; preds = %3
  %7 = icmp sgt i32 %1, -1
  %8 = getelementptr inbounds nuw i8, ptr %0, i64 8
  %9 = load i32, ptr %8, align 8
  %.not10 = icmp slt i32 %1, %9
  %or.cond = select i1 %7, i1 %.not10, i1 false
  br i1 %or.cond, label %11, label %10

10:                                               ; preds = %6
  store i32 1, ptr %2, align 4, !tbaa !13
  br label %18

11:                                               ; preds = %6
  %12 = zext nneg i32 %1 to i64
  %13 = load ptr, ptr %0, align 8, !tbaa !3
  %14 = getelementptr inbounds nuw i32, ptr %13, i64 %12
  %15 = load i32, ptr %14, align 4, !tbaa !17
  %16 = icmp eq i32 %15, -2147483391
  %17 = ashr i32 %15, 16
  %.sink10.i = select i1 %16, i32 -1, i32 %17
  br label %18

18:                                               ; preds = %3, %11, %10
  %.0 = phi i32 [ 2147483647, %10 ], [ %.sink10.i, %11 ], [ 2147483647, %3 ]
  ret i32 %.0
}